; Function Attrs: mustprogress uwtable
define hidden void @_ZN16fpa2bv_converter8mk_is_rmEP4expr9BV_RM_VALR7obj_refIS0_11ast_managerE(ptr noundef nonnull align 8 dereferenceable(496) %0, ptr noundef %1, i32 noundef %2, ptr noundef nonnull align 8 dereferenceable(16) %3) local_unnamed_addr #3 align 2 personality ptr @__gxx_personality_v0 {
  %5 = alloca %class.obj_ref, align 8
  call void @llvm.lifetime.start.p0(i64 16, ptr nonnull %5) #23
  %6 = getelementptr inbounds nuw i8, ptr %0, i64 8
  %7 = load ptr, ptr %6, align 8, !tbaa !130
  store ptr null, ptr %5, align 8, !tbaa !164
  %8 = getelementptr inbounds nuw i8, ptr %5, i64 8
  store ptr %7, ptr %8, align 8, !tbaa !6
  %9 = getelementptr inbounds nuw i8, ptr %0, i64 88
  %10 = zext i32 %2 to i64
  %11 = invoke noundef ptr @_ZNK7bv_util10mk_numeralEmj(ptr noundef nonnull align 8 dereferenceable(24) %9, i64 noundef %10, i32 noundef 3)
          to label %12 unwind label %17

12:                                               ; preds = %4
  %.not.i = icmp eq ptr %11, null
  br i1 %.not.i, label %16, label %_ZN11ast_manager7inc_refEP3ast.exit.i

_ZN11ast_manager7inc_refEP3ast.exit.i:            ; preds = %12
  %13 = getelementptr inbounds nuw i8, ptr %11, i64 8
  %14 = load i32, ptr %13, align 4, !tbaa !125
  %15 = add i32 %14, 1
  store i32 %15, ptr %13, align 4, !tbaa !125
  br label %16

16:                                               ; preds = %12, %_ZN11ast_manager7inc_refEP3ast.exit.i
  store ptr %11, ptr %5, align 8, !tbaa !164
  %switch = icmp ult i32 %2, 5
  br i1 %switch, label %19, label %38

17:                                               ; preds = %37, %23, %19, %39, %38, %4
  %18 = landingpad { ptr, i32 }
          cleanup
  call void @_ZN7obj_refI4expr11ast_managerED2Ev(ptr noundef nonnull align 8 dereferenceable(16) %5) #23
  call void @llvm.lifetime.end.p0(i64 16, ptr nonnull %5) #23
  resume { ptr, i32 } %18

19:                                               ; preds = %16
  %20 = getelementptr inbounds nuw i8, ptr %0, i64 16
  %21 = invoke noundef i32 @_ZN13bool_rewriter10mk_eq_coreEP4exprS1_R7obj_refIS0_11ast_managerE(ptr noundef nonnull align 8 dereferenceable(72) %20, ptr noundef %1, ptr noundef %11, ptr noundef nonnull align 8 dereferenceable(16) %3)
          to label %.noexc6 unwind label %17

.noexc6:                                          ; preds = %19
  %22 = icmp eq i32 %21, 5
  br i1 %22, label %23, label %_ZN13bool_rewriter5mk_eqEP4exprS1_R7obj_refIS0_11ast_managerE.exit

23:                                               ; preds = %.noexc6
  %24 = invoke noundef ptr @_ZN13bool_rewriter11mk_eq_plainEP4exprS1_(ptr noundef nonnull align 8 dereferenceable(72) %20, ptr noundef %1, ptr noundef %11)
          to label %.noexc7 unwind label %17

.noexc7:                                          ; preds = %23
  %.not.i.i = icmp eq ptr %24, null
  br i1 %.not.i.i, label %28, label %_ZN11ast_manager7inc_refEP3ast.exit.i.i

_ZN11ast_manager7inc_refEP3ast.exit.i.i:          ; preds = %.noexc7
  %25 = getelementptr inbounds nuw i8, ptr %24, i64 8
  %26 = load i32, ptr %25, align 4, !tbaa !125
  %27 = add i32 %26, 1
  store i32 %27, ptr %25, align 4, !tbaa !125
  br label %28

28:                                               ; preds = %_ZN11ast_manager7inc_refEP3ast.exit.i.i, %.noexc7
  %29 = load ptr, ptr %3, align 8, !tbaa !164
  %.not.i4.i.i = icmp eq ptr %29, null
  br i1 %.not.i4.i.i, label %_ZN7obj_refI4expr11ast_managerEaSEPS0_.exit.i, label %30

30:                                               ; preds = %28
  %31 = getelementptr inbounds nuw i8, ptr %3, i64 8
  %32 = load ptr, ptr %31, align 8, !tbaa !166
  %33 = getelementptr inbounds nuw i8, ptr %29, i64 8
  %34 = load i32, ptr %33, align 4, !tbaa !125
  %35 = add i32 %34, -1
  store i32 %35, ptr %33, align 4, !tbaa !125
  %36 = icmp eq i32 %35, 0
  br i1 %36, label %37, label %_ZN7obj_refI4expr11ast_managerEaSEPS0_.exit.i

37:                                               ; preds = %30
  invoke void @_ZN11ast_manager11delete_nodeEP3ast(ptr noundef nonnull align 8 dereferenceable(976) %32, ptr noundef nonnull %29)
          to label %_ZN7obj_refI4expr11ast_managerEaSEPS0_.exit.i unwind label %17

_ZN7obj_refI4expr11ast_managerEaSEPS0_.exit.i:    ; preds = %37, %30, %28
  store ptr %24, ptr %3, align 8, !tbaa !164
  br label %_ZN13bool_rewriter5mk_eqEP4exprS1_R7obj_refIS0_11ast_managerE.exit

38:                                               ; preds = %16
  invoke void @_Z26notify_assertion_violationPKciS0_(ptr noundef nonnull @.str.6, i32 noundef 3730, ptr noundef nonnull @.str.7)
          to label %39 unwind label %17

39:                                               ; preds = %38
  invoke void @_Z18invoke_exit_actionj(i32 noundef 114)
          to label %_ZN13bool_rewriter5mk_eqEP4exprS1_R7obj_refIS0_11ast_managerE.exit unwind label %17

_ZN13bool_rewriter5mk_eqEP4exprS1_R7obj_refIS0_11ast_managerE.exit: ; preds = %_ZN7obj_refI4expr11ast_managerEaSEPS0_.exit.i, %.noexc6, %39
  br i1 %.not.i, label %_ZN7obj_refI4expr11ast_managerED2Ev.exit, label %40

40:                                               ; preds = %_ZN13bool_rewriter5mk_eqEP4exprS1_R7obj_refIS0_11ast_managerE.exit
  %41 = getelementptr inbounds nuw i8, ptr %11, i64 8
  %42 = load i32, ptr %41, align 4, !tbaa !125
  %43 = add i32 %42, -1
  store i32 %43, ptr %41, align 4, !tbaa !125
  %44 = icmp eq i32 %43, 0
  br i1 %44, label %45, label %_ZN7obj_refI4expr11ast_managerED2Ev.exit

45:                                               ; preds = %40
  invoke void @_ZN11ast_manager11delete_nodeEP3ast(ptr noundef nonnull align 8 dereferenceable(976) %7, ptr noundef nonnull %11)
          to label %_ZN7obj_refI4expr11ast_managerED2Ev.exit unwind label %46

46:                                               ; preds = %45
  %47 = landingpad { ptr, i32 }
          catch ptr null
  %48 = extractvalue { ptr, i32 } %47, 0
  tail call void @__clang_call_terminate(ptr %48) #24
  unreachable

_ZN7obj_refI4expr11ast_managerED2Ev.exit:         ; preds = %_ZN13bool_rewriter5mk_eqEP4exprS1_R7obj_refIS0_11ast_managerE.exit, %40, %45
  call void @llvm.lifetime.end.p0(i64 16, ptr nonnull %5) #23
  ret void
}